target datalayout = "e-m:e-p270:32:32-p271:32:32-p272:64:64-i64:64-i128:128-f80:128-n8:16:32:64-S128"
target triple = "x86_64-pc-linux-gnu"

%struct._zval_struct = type { %union._zend_value, %union.anon, %union.anon.2 }
%union._zend_value = type { i64 }
%union.anon = type { i32 }
%union.anon.2 = type { i32 }
%struct._zend_executor_globals = type { %struct._zval_struct, %struct._zval_struct, [32 x ptr], ptr, ptr, %struct._zend_array, %struct._zend_array, ptr, i32, i32, ptr, ptr, ptr, ptr, ptr, ptr, i64, ptr, ptr, i32, i32, i64, i32, i32, i32, i8, i8, %struct.zend_atomic_bool_s, %struct.zend_atomic_bool_s, ptr, i64, ptr, ptr, %struct._zend_array, %struct._zend_array, i32, i8, %struct._zval_struct, %struct._zval_struct, %struct._zend_stack, %struct._zend_stack, %struct._zend_stack, ptr, i32, i32, i64, ptr, ptr, ptr, %struct._zend_objects_store, ptr, ptr, ptr, [3 x %struct._zend_op], ptr, i8, i8, i64, i32, i32, ptr, [16 x %struct._HashTableIterator], ptr, %union._zend_function, %struct._zend_op, %struct._zend_array, i64, %struct.zend_get_gc_buffer, ptr, ptr, ptr, i64, i8, i32, ptr, ptr, i64, %struct._zend_call_stack, i64, i64, [6 x ptr] }
%struct.zend_atomic_bool_s = type { i8 }
%struct._zend_stack = type { i32, i32, i32, ptr }
%struct._zend_objects_store = type { ptr, i32, i32, i32 }
%struct._HashTableIterator = type { ptr, i32, i32 }
%union._zend_function = type { %struct._zend_op_array }
%struct._zend_op_array = type { i8, [3 x i8], i32, ptr, ptr, ptr, i32, i32, ptr, ptr, ptr, ptr, i32, i32, i32, i32, ptr, ptr, ptr, ptr, ptr, i32, i32, ptr, ptr, ptr, i32, i32, i32, i32, ptr, ptr, [6 x ptr] }
%struct._zend_op = type { ptr, %union._znode_op, %union._znode_op, %union._znode_op, i32, i32, i8, i8, i8, i8 }
%union._znode_op = type { i32 }
%struct._zend_array = type { %struct._zend_refcounted_h, %union.anon.4, i32, %union.anon.6, i32, i32, i32, i32, i64, ptr }
%struct._zend_refcounted_h = type { i32, %union.anon.3 }
%union.anon.3 = type { i32 }
%union.anon.4 = type { i32 }
%union.anon.6 = type { ptr }
%struct.zend_get_gc_buffer = type { ptr, ptr, ptr }
%struct._zend_call_stack = type { ptr, i64 }
%struct.anon.7 = type { i8, [3 x i8], i32, ptr, ptr, ptr, i32, i32, ptr, ptr, ptr, ptr, i32 }
%struct._zend_execute_data = type { ptr, ptr, ptr, ptr, %struct._zval_struct, ptr, ptr, ptr, ptr }
%struct._zend_string = type { %struct._zend_refcounted_h, i64, i64, [1 x i8] }

@executor_globals = external global %struct._zend_executor_globals, align 8

; Function Attrs: nounwind uwtable
define i32 @zend_set_local_var(ptr noundef %0, ptr noundef %1, i1 noundef zeroext %2) #0 {
  %4 = alloca ptr, align 8
  %5 = alloca ptr, align 8
  %6 = alloca ptr, align 8
  %7 = alloca i32, align 4
  %8 = alloca ptr, align 8
  %9 = alloca ptr, align 8
  %10 = alloca i8, align 1
  %11 = alloca ptr, align 8
  %12 = alloca i64, align 8
  %13 = alloca ptr, align 8
  %14 = alloca ptr, align 8
  %15 = alloca ptr, align 8
  %16 = alloca ptr, align 8
  %17 = alloca ptr, align 8
  %18 = alloca ptr, align 8
  %19 = alloca ptr, align 8
  %20 = alloca i32, align 4
  %21 = alloca ptr, align 8
  store ptr %0, ptr %8, align 8
  store ptr %1, ptr %9, align 8
  %22 = zext i1 %2 to i8
  store i8 %22, ptr %10, align 1
  %23 = load ptr, ptr getelementptr inbounds (%struct._zend_executor_globals, ptr @executor_globals, i32 0, i32 17), align 8
  store ptr %23, ptr %11, align 8
  br label %24

24:                                               ; preds = %45, %3
  %25 = load ptr, ptr %11, align 8
  %26 = icmp ne ptr %25, null
  br i1 %26, label %27, label %43

27:                                               ; preds = %24
  %28 = load ptr, ptr %11, align 8
  %29 = getelementptr inbounds %struct._zend_execute_data, ptr %28, i32 0, i32 3
  %30 = load ptr, ptr %29, align 8
  %31 = icmp ne ptr %30, null
  br i1 %31, label %32, label %41

32:                                               ; preds = %27
  %33 = load ptr, ptr %11, align 8
  %34 = getelementptr inbounds %struct._zend_execute_data, ptr %33, i32 0, i32 3
  %35 = load ptr, ptr %34, align 8
  %36 = getelementptr inbounds %struct.anon.7, ptr %35, i32 0, i32 0
  %37 = load i8, ptr %36, align 8
  %38 = zext i8 %37 to i32
  %39 = icmp ne i32 %38, 1
  %40 = xor i1 %39, true
  br label %41

41:                                               ; preds = %32, %27
  %42 = phi i1 [ true, %27 ], [ %40, %32 ]
  br label %43

43:                                               ; preds = %41, %24
  %44 = phi i1 [ false, %24 ], [ %42, %41 ]
  br i1 %44, label %45, label %49

45:                                               ; preds = %43
  %46 = load ptr, ptr %11, align 8
  %47 = getelementptr inbounds %struct._zend_execute_data, ptr %46, i32 0, i32 5
  %48 = load ptr, ptr %47, align 8
  store ptr %48, ptr %11, align 8
  br label %24

49:                                               ; preds = %43
  %50 = load ptr, ptr %11, align 8
  %51 = icmp ne ptr %50, null
  br i1 %51, label %52, label %182

52:                                               ; preds = %49
  %53 = load ptr, ptr %11, align 8
  %54 = getelementptr inbounds %struct._zend_execute_data, ptr %53, i32 0, i32 4
  %55 = getelementptr inbounds %struct._zval_struct, ptr %54, i32 0, i32 1
  %56 = load i32, ptr %55, align 8
  %57 = and i32 %56, 1048576
  %58 = icmp ne i32 %57, 0
  br i1 %58, label %174, label %59

59:                                               ; preds = %52
  %60 = load ptr, ptr %8, align 8
  store ptr %60, ptr %6, align 8
  %61 = load ptr, ptr %6, align 8
  %62 = getelementptr inbounds %struct._zend_string, ptr %61, i32 0, i32 1
  %63 = load i64, ptr %62, align 8
  %64 = icmp ne i64 %63, 0
  br i1 %64, label %65, label %69

65:                                               ; preds = %59
  %66 = load ptr, ptr %6, align 8
  %67 = getelementptr inbounds %struct._zend_string, ptr %66, i32 0, i32 1
  %68 = load i64, ptr %67, align 8
  br label %72

69:                                               ; preds = %59
  %70 = load ptr, ptr %6, align 8
  %71 = call i64 @zend_string_hash_func(ptr noundef %70) #14
  br label %72

72:                                               ; preds = %69, %65
  %73 = phi i64 [ %68, %65 ], [ %71, %69 ]
  store i64 %73, ptr %12, align 8
  %74 = load ptr, ptr %11, align 8
  %75 = getelementptr inbounds %struct._zend_execute_data, ptr %74, i32 0, i32 3
  %76 = load ptr, ptr %75, align 8
  store ptr %76, ptr %13, align 8
  %77 = load ptr, ptr %13, align 8
  %78 = getelementptr inbounds %struct._zend_op_array, ptr %77, i32 0, i32 14
  %79 = load i32, ptr %78, align 8
  %80 = icmp ne i32 %79, 0
  %81 = xor i1 %80, true
  %82 = xor i1 %81, true
  %83 = zext i1 %82 to i32
  %84 = sext i32 %83 to i64
  %85 = icmp ne i64 %84, 0
  br i1 %85, label %86, label %160

86:                                               ; preds = %72
  %87 = load ptr, ptr %13, align 8
  %88 = getelementptr inbounds %struct._zend_op_array, ptr %87, i32 0, i32 19
  %89 = load ptr, ptr %88, align 8
  store ptr %89, ptr %14, align 8
  %90 = load ptr, ptr %14, align 8
  %91 = load ptr, ptr %13, align 8
  %92 = getelementptr inbounds %struct._zend_op_array, ptr %91, i32 0, i32 14
  %93 = load i32, ptr %92, align 8
  %94 = sext i32 %93 to i64
  %95 = getelementptr inbounds ptr, ptr %90, i64 %94
  store ptr %95, ptr %15, align 8
  br label %96

96:                                               ; preds = %155, %86
  %97 = load ptr, ptr %14, align 8
  %98 = load ptr, ptr %97, align 8
  %99 = getelementptr inbounds %struct._zend_string, ptr %98, i32 0, i32 1
  %100 = load i64, ptr %99, align 8
  %101 = load i64, ptr %12, align 8
  %102 = icmp eq i64 %100, %101
  br i1 %102, label %103, label %152

103:                                              ; preds = %96
  %104 = load ptr, ptr %14, align 8
  %105 = load ptr, ptr %104, align 8
  %106 = load ptr, ptr %8, align 8
  store ptr %105, ptr %4, align 8
  store ptr %106, ptr %5, align 8
  %107 = load ptr, ptr %4, align 8
  %108 = getelementptr inbounds %struct._zend_string, ptr %107, i32 0, i32 2
  %109 = load i64, ptr %108, align 8
  %110 = load ptr, ptr %5, align 8
  %111 = getelementptr inbounds %struct._zend_string, ptr %110, i32 0, i32 2
  %112 = load i64, ptr %111, align 8
  %113 = icmp eq i64 %109, %112
  br i1 %113, label %114, label %118

114:                                              ; preds = %103
  %115 = load ptr, ptr %4, align 8
  %116 = load ptr, ptr %5, align 8
  %117 = call zeroext i1 @zend_string_equal_val(ptr noundef %115, ptr noundef %116) #14
  br label %118

118:                                              ; preds = %114, %103
  %119 = phi i1 [ false, %103 ], [ %117, %114 ]
  br i1 %119, label %120, label %152

120:                                              ; preds = %118
  %121 = load ptr, ptr %11, align 8
  %122 = load ptr, ptr %14, align 8
  %123 = load ptr, ptr %13, align 8
  %124 = getelementptr inbounds %struct._zend_op_array, ptr %123, i32 0, i32 19
  %125 = load ptr, ptr %124, align 8
  %126 = ptrtoint ptr %122 to i64
  %127 = ptrtoint ptr %125 to i64
  %128 = sub i64 %126, %127
  %129 = sdiv exact i64 %128, 8
  %130 = trunc i64 %129 to i32
  %131 = add nsw i32 5, %130
  %132 = sext i32 %131 to i64
  %133 = getelementptr inbounds %struct._zval_struct, ptr %121, i64 %132
  store ptr %133, ptr %16, align 8
  br label %134

134:                                              ; preds = %120
  %135 = load ptr, ptr %16, align 8
  store ptr %135, ptr %17, align 8
  %136 = load ptr, ptr %9, align 8
  store ptr %136, ptr %18, align 8
  %137 = load ptr, ptr %18, align 8
  %138 = getelementptr inbounds %struct._zval_struct, ptr %137, i32 0, i32 0
  %139 = load ptr, ptr %138, align 8
  store ptr %139, ptr %19, align 8
  %140 = load ptr, ptr %18, align 8
  %141 = getelementptr inbounds %struct._zval_struct, ptr %140, i32 0, i32 1
  %142 = load i32, ptr %141, align 8
  store i32 %142, ptr %20, align 4
  br label %143

143:                                              ; preds = %134
  %144 = load ptr, ptr %19, align 8
  %145 = load ptr, ptr %17, align 8
  %146 = getelementptr inbounds %struct._zval_struct, ptr %145, i32 0, i32 0
  store ptr %144, ptr %146, align 8
  %147 = load i32, ptr %20, align 4
  %148 = load ptr, ptr %17, align 8
  %149 = getelementptr inbounds %struct._zval_struct, ptr %148, i32 0, i32 1
  store i32 %147, ptr %149, align 8
  br label %150

150:                                              ; preds = %143
  br label %151

151:                                              ; preds = %150
  store i32 0, ptr %7, align 4
  br label %183

152:                                              ; preds = %118, %96
  %153 = load ptr, ptr %14, align 8
  %154 = getelementptr inbounds ptr, ptr %153, i32 1
  store ptr %154, ptr %14, align 8
  br label %155

155:                                              ; preds = %152
  %156 = load ptr, ptr %14, align 8
  %157 = load ptr, ptr %15, align 8
  %158 = icmp ne ptr %156, %157
  br i1 %158, label %96, label %159

159:                                              ; preds = %155
  br label %160

160:                                              ; preds = %159, %72
  %161 = load i8, ptr %10, align 1
  %162 = trunc i8 %161 to i1
  br i1 %162, label %163, label %173

163:                                              ; preds = %160
  %164 = call ptr @zend_rebuild_symbol_table()
  store ptr %164, ptr %21, align 8
  %165 = load ptr, ptr %21, align 8
  %166 = icmp ne ptr %165, null
  br i1 %166, label %167, label %172

167:                                              ; preds = %163
  %168 = load ptr, ptr %21, align 8
  %169 = load ptr, ptr %8, align 8
  %170 = load ptr, ptr %9, align 8
  %171 = call ptr @zend_hash_update(ptr noundef %168, ptr noundef %169, ptr noundef %170)
  store i32 0, ptr %7, align 4
  br label %183

172:                                              ; preds = %163
  br label %173

173:                                              ; preds = %172, %160
  br label %181

174:                                              ; preds = %52
  %175 = load ptr, ptr %11, align 8
  %176 = getelementptr inbounds %struct._zend_execute_data, ptr %175, i32 0, i32 6
  %177 = load ptr, ptr %176, align 8
  %178 = load ptr, ptr %8, align 8
  %179 = load ptr, ptr %9, align 8
  %180 = call ptr @zend_hash_update_ind(ptr noundef %177, ptr noundef %178, ptr noundef %179)
  store i32 0, ptr %7, align 4
  br label %183

181:                                              ; preds = %173
  br label %182

182:                                              ; preds = %181, %49
  store i32 -1, ptr %7, align 4
  br label %183

183:                                              ; preds = %182, %174, %167, %151
  %184 = load i32, ptr %7, align 4
  ret i32 %184
}