; Function Attrs: nounwind uwtable
define noundef i32 @zend_set_local_var(ptr noundef %0, ptr noundef %1, i1 noundef zeroext %2) local_unnamed_addr #0 {
  %.04966 = load ptr, ptr getelementptr inbounds (%struct._zend_executor_globals, ptr @executor_globals, i64 0, i32 17), align 8
  %.not67 = icmp eq ptr %.04966, null
  br i1 %.not67, label %.critedge63, label %.lr.ph

.lr.ph:                                           ; preds = %3, %.critedge2
  %.04968 = phi ptr [ %.049, %.critedge2 ], [ %.04966, %3 ]
  %4 = getelementptr inbounds i8, ptr %.04968, i64 24
  %5 = load ptr, ptr %4, align 8
  %.not56 = icmp eq ptr %5, null
  br i1 %.not56, label %.critedge2, label %6

6:                                                ; preds = %.lr.ph
  %7 = load i8, ptr %5, align 8
  %.not57 = icmp eq i8 %7, 1
  br i1 %.not57, label %.critedge2, label %.critedge

.critedge2:                                       ; preds = %.lr.ph, %6
  %8 = getelementptr inbounds i8, ptr %.04968, i64 48
  %.049 = load ptr, ptr %8, align 8
  %.not = icmp eq ptr %.049, null
  br i1 %.not, label %.critedge63, label %.lr.ph

.critedge:                                        ; preds = %6
  %9 = getelementptr inbounds i8, ptr %.04968, i64 24
  %10 = getelementptr inbounds i8, ptr %.04968, i64 40
  %11 = load i32, ptr %10, align 8
  %12 = and i32 %11, 1048576
  %.not58 = icmp eq i32 %12, 0
  br i1 %.not58, label %13, label %58

13:                                               ; preds = %.critedge
  %14 = getelementptr inbounds i8, ptr %0, i64 8
  %15 = load i64, ptr %14, align 8
  %.not59 = icmp eq i64 %15, 0
  br i1 %.not59, label %16, label %18

16:                                               ; preds = %13
  %17 = tail call i64 @zend_string_hash_func(ptr noundef nonnull %0) #24
  %.pre = load ptr, ptr %9, align 8
  br label %18

18:                                               ; preds = %13, %16
  %19 = phi ptr [ %.pre, %16 ], [ %5, %13 ]
  %20 = phi i64 [ %17, %16 ], [ %15, %13 ]
  %21 = getelementptr inbounds i8, ptr %19, i64 80
  %22 = load i32, ptr %21, align 8
  %.not60 = icmp eq i32 %22, 0
  br i1 %.not60, label %.loopexit, label %23

23:                                               ; preds = %18
  %24 = getelementptr inbounds i8, ptr %19, i64 112
  %25 = load ptr, ptr %24, align 8
  %26 = sext i32 %22 to i64
  %27 = getelementptr inbounds ptr, ptr %25, i64 %26
  %28 = getelementptr inbounds i8, ptr %0, i64 16
  br label %29

29:                                               ; preds = %.critedge4, %23
  %.050 = phi ptr [ %25, %23 ], [ %53, %.critedge4 ]
  %30 = load ptr, ptr %.050, align 8
  %31 = getelementptr inbounds i8, ptr %30, i64 8
  %32 = load i64, ptr %31, align 8
  %33 = icmp eq i64 %32, %20
  br i1 %33, label %34, label %.critedge4

34:                                               ; preds = %29
  %35 = getelementptr inbounds i8, ptr %30, i64 16
  %36 = load i64, ptr %35, align 8
  %37 = load i64, ptr %28, align 8
  %38 = icmp eq i64 %36, %37
  br i1 %38, label %39, label %.critedge4

39:                                               ; preds = %34
  %40 = tail call zeroext i1 @zend_string_equal_val(ptr noundef nonnull %30, ptr noundef nonnull %0) #24
  br i1 %40, label %41, label %.critedge4

41:                                               ; preds = %39
  %42 = load ptr, ptr %24, align 8
  %43 = ptrtoint ptr %.050 to i64
  %44 = ptrtoint ptr %42 to i64
  %45 = sub i64 %43, %44
  %46 = shl i64 %45, 29
  %sext = add i64 %46, 21474836480
  %47 = ashr i64 %sext, 32
  %48 = getelementptr inbounds %struct._zval_struct, ptr %.04968, i64 %47
  %49 = load ptr, ptr %1, align 8
  %50 = getelementptr inbounds i8, ptr %1, i64 8
  %51 = load i32, ptr %50, align 8
  store ptr %49, ptr %48, align 8
  %52 = getelementptr inbounds i8, ptr %48, i64 8
  store i32 %51, ptr %52, align 8
  br label %.critedge63

.critedge4:                                       ; preds = %34, %39, %29
  %53 = getelementptr inbounds i8, ptr %.050, i64 8
  %.not61 = icmp eq ptr %53, %27
  br i1 %.not61, label %.loopexit, label %29

.loopexit:                                        ; preds = %.critedge4, %18
  br i1 %2, label %54, label %.critedge63

54:                                               ; preds = %.loopexit
  %55 = tail call ptr @zend_rebuild_symbol_table()
  %.not62 = icmp eq ptr %55, null
  br i1 %.not62, label %.critedge63, label %56

56:                                               ; preds = %54
  %57 = tail call ptr @zend_hash_update(ptr noundef nonnull %55, ptr noundef %0, ptr noundef %1) #24
  br label %.critedge63

58:                                               ; preds = %.critedge
  %59 = getelementptr inbounds i8, ptr %.04968, i64 56
  %60 = load ptr, ptr %59, align 8
  %61 = tail call ptr @zend_hash_update_ind(ptr noundef %60, ptr noundef %0, ptr noundef %1) #24
  br label %.critedge63

.critedge63:                                      ; preds = %.critedge2, %3, %.loopexit, %54, %58, %56, %41
  %.0 = phi i32 [ 0, %58 ], [ 0, %41 ], [ 0, %56 ], [ -1, %54 ], [ -1, %.loopexit ], [ -1, %3 ], [ -1, %.critedge2 ]
  ret i32 %.0
}